#include <math.h>
#include <stdio.h>
#include <stdlib.h>
#include <string.h>

int main()
{
    int a=1,b=1,i=1;
    scanf("%d",&a);
    for(i=a;i!=1;i=b)
    {
    if(i%2==0)
    {
       b=i/2;       
    printf("%d/2=%d\n",i,i/2);
                       }
    else
    {
        b=i*3+1;
    printf("%d*3+1=%d\n",i,i*3+1);
                        }
                                   }                   
    printf("End");                    
    
    }