; ModuleID = '34/1985.c'
source_filename = "34/1985.c"
target datalayout = "e-m:e-p270:32:32-p271:32:32-p272:64:64-i64:64-f80:128-n8:16:32:64-S128"
target triple = "x86_64-pc-linux-gnu"

@.str = private unnamed_addr constant [3 x i8] c"%d\00", align 1
@.str.1 = private unnamed_addr constant [9 x i8] c"%d/2=%d\0A\00", align 1
@.str.2 = private unnamed_addr constant [11 x i8] c"%d*3+1=%d\0A\00", align 1
@.str.3 = private unnamed_addr constant [4 x i8] c"End\00", align 1

; Function Attrs: noinline nounwind uwtable
define dso_local i32 @main() #0 {
  %1 = alloca i32, align 4
  %2 = alloca i32, align 4
  %3 = alloca i32, align 4
  %4 = alloca i32, align 4
  store i32 0, i32* %1, align 4
  store i32 1, i32* %2, align 4
  store i32 1, i32* %3, align 4
  store i32 1, i32* %4, align 4
  %5 = call i32 (i8*, ...) @__isoc99_scanf(i8* getelementptr inbounds ([3 x i8], [3 x i8]* @.str, i64 0, i64 0), i32* %2)
  %6 = load i32, i32* %2, align 4
  store i32 %6, i32* %4, align 4
  br label %7

7:                                                ; preds = %31, %0
  %8 = load i32, i32* %4, align 4
  %9 = icmp ne i32 %8, 1
  br i1 %9, label %10, label %33

10:                                               ; preds = %7
  %11 = load i32, i32* %4, align 4
  %12 = srem i32 %11, 2
  %13 = icmp eq i32 %12, 0
  br i1 %13, label %14, label %21

14:                                               ; preds = %10
  %15 = load i32, i32* %4, align 4
  %16 = sdiv i32 %15, 2
  store i32 %16, i32* %3, align 4
  %17 = load i32, i32* %4, align 4
  %18 = load i32, i32* %4, align 4
  %19 = sdiv i32 %18, 2
  %20 = call i32 (i8*, ...) @printf(i8* getelementptr inbounds ([9 x i8], [9 x i8]* @.str.1, i64 0, i64 0), i32 %17, i32 %19)
  br label %30

21:                                               ; preds = %10
  %22 = load i32, i32* %4, align 4
  %23 = mul nsw i32 %22, 3
  %24 = add nsw i32 %23, 1
  store i32 %24, i32* %3, align 4
  %25 = load i32, i32* %4, align 4
  %26 = load i32, i32* %4, align 4
  %27 = mul nsw i32 %26, 3
  %28 = add nsw i32 %27, 1
  %29 = call i32 (i8*, ...) @printf(i8* getelementptr inbounds ([11 x i8], [11 x i8]* @.str.2, i64 0, i64 0), i32 %25, i32 %28)
  br label %30

30:                                               ; preds = %21, %14
  br label %31

31:                                               ; preds = %30
  %32 = load i32, i32* %3, align 4
  store i32 %32, i32* %4, align 4
  br label %7

33:                                               ; preds = %7
  %34 = call i32 (i8*, ...) @printf(i8* getelementptr inbounds ([4 x i8], [4 x i8]* @.str.3, i64 0, i64 0))
  %35 = load i32, i32* %1, align 4
  ret i32 %35
}

declare dso_local i32 @__isoc99_scanf(i8*, ...) #1

declare dso_local i32 @printf(i8*, ...) #1


!llvm.module.flags = !{!0}
!llvm.ident = !{!1}

!0 = !{i32 1, !"wchar_size", i32 4}
!1 = !{!"clang version 10.0.0-4ubuntu1 "}
